target datalayout = "e-m:e-p270:32:32-p271:32:32-p272:64:64-i64:64-i128:128-f80:128-n8:16:32:64-S128"
target triple = "x86_64-pc-linux-gnu"

; Function Attrs: mustprogress nounwind uwtable
define internal noundef i64 @_ZN6google8protobuf8internalL10VarintSizeILb0ELb1EiEEmPKT1_i(ptr noundef %0, i32 noundef %1) #5 {
  %3 = alloca ptr, align 8
  %4 = alloca i32, align 4
  %5 = alloca i32, align 4
  %6 = alloca i32, align 4
  %7 = alloca i32, align 4
  %8 = alloca i32, align 4
  store ptr %0, ptr %3, align 8
  store i32 %1, ptr %4, align 4
  %9 = load i32, ptr %4, align 4
  store i32 %9, ptr %5, align 4
  store i32 0, ptr %6, align 4
  store i32 0, ptr %7, align 4
  br label %10

10:                                               ; preds = %48, %2
  %11 = load i32, ptr %7, align 4
  %12 = load i32, ptr %4, align 4
  %13 = icmp slt i32 %11, %12
  br i1 %13, label %14, label %51

14:                                               ; preds = %10
  %15 = load ptr, ptr %3, align 8
  %16 = load i32, ptr %7, align 4
  %17 = sext i32 %16 to i64
  %18 = getelementptr inbounds i32, ptr %15, i64 %17
  %19 = load i32, ptr %18, align 4
  store i32 %19, ptr %8, align 4
  %20 = load i32, ptr %8, align 4
  %21 = lshr i32 %20, 31
  %22 = load i32, ptr %6, align 4
  %23 = add i32 %22, %21
  store i32 %23, ptr %6, align 4
  %24 = load i32, ptr %8, align 4
  %25 = icmp ugt i32 %24, 127
  br i1 %25, label %26, label %29

26:                                               ; preds = %14
  %27 = load i32, ptr %5, align 4
  %28 = add i32 %27, 1
  store i32 %28, ptr %5, align 4
  br label %29

29:                                               ; preds = %26, %14
  %30 = load i32, ptr %8, align 4
  %31 = icmp ugt i32 %30, 16383
  br i1 %31, label %32, label %35

32:                                               ; preds = %29
  %33 = load i32, ptr %5, align 4
  %34 = add i32 %33, 1
  store i32 %34, ptr %5, align 4
  br label %35

35:                                               ; preds = %32, %29
  %36 = load i32, ptr %8, align 4
  %37 = icmp ugt i32 %36, 2097151
  br i1 %37, label %38, label %41

38:                                               ; preds = %35
  %39 = load i32, ptr %5, align 4
  %40 = add i32 %39, 1
  store i32 %40, ptr %5, align 4
  br label %41

41:                                               ; preds = %38, %35
  %42 = load i32, ptr %8, align 4
  %43 = icmp ugt i32 %42, 268435455
  br i1 %43, label %44, label %47

44:                                               ; preds = %41
  %45 = load i32, ptr %5, align 4
  %46 = add i32 %45, 1
  store i32 %46, ptr %5, align 4
  br label %47

47:                                               ; preds = %44, %41
  br label %48

48:                                               ; preds = %47
  %49 = load i32, ptr %7, align 4
  %50 = add nsw i32 %49, 1
  store i32 %50, ptr %7, align 4
  br label %10, !llvm.loop !8

51:                                               ; preds = %10
  %52 = load i32, ptr %6, align 4
  %53 = mul i32 %52, 5
  %54 = load i32, ptr %5, align 4
  %55 = add i32 %54, %53
  store i32 %55, ptr %5, align 4
  %56 = load i32, ptr %5, align 4
  %57 = zext i32 %56 to i64
  ret i64 %57
}

; Function Attrs: mustprogress uwtable
define noundef i64 @_ZN6google8protobuf8internal14WireFormatLite9Int32SizeERKNS0_13RepeatedFieldIiEE(ptr noundef nonnull align 8 dereferenceable(16) %0) #4 align 2 {
  %2 = alloca ptr, align 8
  store ptr %0, ptr %2, align 8
  %3 = load ptr, ptr %2, align 8
  %4 = call noundef ptr @_ZNK6google8protobuf13RepeatedFieldIiE4dataEv(ptr noundef nonnull align 8 dereferenceable(16) %3)
  %5 = load ptr, ptr %2, align 8
  %6 = call noundef i32 @_ZNK6google8protobuf13RepeatedFieldIiE4sizeEv(ptr noundef nonnull align 8 dereferenceable(16) %5)
  %7 = call noundef i64 @_ZN6google8protobuf8internalL10VarintSizeILb0ELb1EiEEmPKT1_i(ptr noundef %4, i32 noundef %6)
  ret i64 %7
}